target datalayout = "e-m:e-p270:32:32-p271:32:32-p272:64:64-i64:64-i128:128-f80:128-n8:16:32:64-S128"
target triple = "x86_64-pc-linux-gnu"

%struct._extcap_arg = type { i32, ptr, ptr, ptr, ptr, ptr, i8, i8, i8, i8, ptr, ptr, i32, ptr, ptr, ptr, ptr, ptr, ptr }

@.str = private unnamed_addr constant [7 x i8] c"extcap\00", align 1
@.str.4 = private unnamed_addr constant [5 x i8] c"[-]+\00", align 1
@.str.5 = private unnamed_addr constant [18 x i8] c"(?![a-zA-Z0-9_]).\00", align 1
@.str.6 = private unnamed_addr constant [1 x i8] zeroinitializer, align 1
@.str.7 = private unnamed_addr constant [2 x i8] c"_\00", align 1
@.str.8 = private unnamed_addr constant [2 x i8] c".\00", align 1

; Function Attrs: null_pointer_is_valid sspstrong uwtable
define hidden ptr @extcap_pref_for_argument(ptr noundef %0, ptr noundef %1) #0 {
  %3 = alloca ptr, align 8
  %4 = alloca ptr, align 8
  %5 = alloca ptr, align 8
  %6 = alloca ptr, align 8
  %7 = alloca ptr, align 8
  %8 = alloca ptr, align 8
  %9 = alloca ptr, align 8
  %10 = alloca ptr, align 8
  %11 = alloca ptr, align 8
  %12 = alloca ptr, align 8
  store ptr %0, ptr %3, align 8
  store ptr %1, ptr %4, align 8
  call void @llvm.lifetime.start.p0(i64 8, ptr %5) #9
  store ptr null, ptr %5, align 8
  call void @extcap_ensure_all_interfaces_loaded()
  call void @llvm.lifetime.start.p0(i64 8, ptr %6) #9
  %13 = call ptr @g_regex_new(ptr noundef @.str.4, i32 noundef 2048, i32 noundef 0, ptr noundef null)
  store ptr %13, ptr %6, align 8
  call void @llvm.lifetime.start.p0(i64 8, ptr %7) #9
  %14 = call ptr @g_regex_new(ptr noundef @.str.5, i32 noundef 2048, i32 noundef 0, ptr noundef null)
  store ptr %14, ptr %7, align 8
  %15 = load ptr, ptr %6, align 8
  %16 = icmp ne ptr %15, null
  br i1 %16, label %17, label %52

17:                                               ; preds = %2
  %18 = load ptr, ptr %7, align 8
  %19 = icmp ne ptr %18, null
  br i1 %19, label %20, label %52

20:                                               ; preds = %17
  call void @llvm.lifetime.start.p0(i64 8, ptr %8) #9
  %21 = call ptr @prefs_find_module(ptr noundef @.str)
  store ptr %21, ptr %8, align 8
  %22 = load ptr, ptr %8, align 8
  %23 = icmp ne ptr %22, null
  br i1 %23, label %24, label %51

24:                                               ; preds = %20
  call void @llvm.lifetime.start.p0(i64 8, ptr %9) #9
  %25 = load ptr, ptr %6, align 8
  %26 = load ptr, ptr %4, align 8
  %27 = getelementptr inbounds nuw %struct._extcap_arg, ptr %26, i32 0, i32 1
  %28 = load ptr, ptr %27, align 8
  %29 = load ptr, ptr %4, align 8
  %30 = getelementptr inbounds nuw %struct._extcap_arg, ptr %29, i32 0, i32 1
  %31 = load ptr, ptr %30, align 8
  %32 = call i64 @strlen(ptr noundef %31) #12
  %33 = call ptr @g_regex_replace(ptr noundef %25, ptr noundef %28, i64 noundef %32, i32 noundef 0, ptr noundef @.str.6, i32 noundef 0, ptr noundef null)
  store ptr %33, ptr %9, align 8
  call void @llvm.lifetime.start.p0(i64 8, ptr %10) #9
  %34 = load ptr, ptr %7, align 8
  %35 = load ptr, ptr %3, align 8
  %36 = load ptr, ptr %3, align 8
  %37 = call i64 @strlen(ptr noundef %36) #12
  %38 = call ptr @g_regex_replace(ptr noundef %34, ptr noundef %35, i64 noundef %37, i32 noundef 0, ptr noundef @.str.7, i32 noundef 0, ptr noundef null)
  store ptr %38, ptr %10, align 8
  call void @llvm.lifetime.start.p0(i64 8, ptr %11) #9
  %39 = load ptr, ptr %10, align 8
  %40 = call noalias ptr @g_ascii_strdown(ptr noundef %39, i64 noundef -1)
  store ptr %40, ptr %11, align 8
  call void @llvm.lifetime.start.p0(i64 8, ptr %12) #9
  %41 = load ptr, ptr %11, align 8
  %42 = load ptr, ptr %9, align 8
  %43 = call noalias ptr (ptr, ...) @g_strconcat(ptr noundef %41, ptr noundef @.str.8, ptr noundef %42, ptr noundef null)
  store ptr %43, ptr %12, align 8
  %44 = load ptr, ptr %8, align 8
  %45 = load ptr, ptr %12, align 8
  %46 = call ptr @prefs_find_preference(ptr noundef %44, ptr noundef %45)
  store ptr %46, ptr %5, align 8
  %47 = load ptr, ptr %9, align 8
  call void @g_free(ptr noundef %47)
  %48 = load ptr, ptr %10, align 8
  call void @g_free(ptr noundef %48)
  %49 = load ptr, ptr %11, align 8
  call void @g_free(ptr noundef %49)
  %50 = load ptr, ptr %12, align 8
  call void @g_free(ptr noundef %50)
  call void @llvm.lifetime.end.p0(i64 8, ptr %12) #9
  call void @llvm.lifetime.end.p0(i64 8, ptr %11) #9
  call void @llvm.lifetime.end.p0(i64 8, ptr %10) #9
  call void @llvm.lifetime.end.p0(i64 8, ptr %9) #9
  br label %51

51:                                               ; preds = %24, %20
  call void @llvm.lifetime.end.p0(i64 8, ptr %8) #9
  br label %52

52:                                               ; preds = %51, %17, %2
  %53 = load ptr, ptr %6, align 8
  %54 = icmp ne ptr %53, null
  br i1 %54, label %55, label %57

55:                                               ; preds = %52
  %56 = load ptr, ptr %6, align 8
  call void @g_regex_unref(ptr noundef %56)
  br label %57

57:                                               ; preds = %55, %52
  %58 = load ptr, ptr %7, align 8
  %59 = icmp ne ptr %58, null
  br i1 %59, label %60, label %62

60:                                               ; preds = %57
  %61 = load ptr, ptr %7, align 8
  call void @g_regex_unref(ptr noundef %61)
  br label %62

62:                                               ; preds = %60, %57
  %63 = load ptr, ptr %5, align 8
  call void @llvm.lifetime.end.p0(i64 8, ptr %7) #9
  call void @llvm.lifetime.end.p0(i64 8, ptr %6) #9
  call void @llvm.lifetime.end.p0(i64 8, ptr %5) #9
  ret ptr %63
}