; Function Attrs: null_pointer_is_valid sspstrong uwtable
define hidden ptr @extcap_pref_for_argument(ptr noundef %0, ptr noundef readonly captures(none) %1) local_unnamed_addr #0 {
  tail call fastcc void @extcap_ensure_all_interfaces_loaded()
  %3 = tail call ptr @g_regex_new(ptr noundef nonnull @.str.4, i32 noundef 2048, i32 noundef 0, ptr noundef null)
  %4 = tail call ptr @g_regex_new(ptr noundef nonnull @.str.5, i32 noundef 2048, i32 noundef 0, ptr noundef null)
  %5 = icmp ne ptr %3, null
  %6 = icmp ne ptr %4, null
  %or.cond = select i1 %5, i1 %6, i1 false
  br i1 %or.cond, label %7, label %19

7:                                                ; preds = %2
  %8 = tail call ptr @prefs_find_module(ptr noundef nonnull @.str)
  %.not = icmp eq ptr %8, null
  br i1 %.not, label %.thread, label %9

9:                                                ; preds = %7
  %10 = getelementptr inbounds nuw i8, ptr %1, i64 8
  %11 = load ptr, ptr %10, align 8
  %12 = tail call i64 @strlen(ptr noundef %11) #12
  %13 = tail call ptr @g_regex_replace(ptr noundef nonnull %3, ptr noundef %11, i64 noundef %12, i32 noundef 0, ptr noundef nonnull @.str.6, i32 noundef 0, ptr noundef null)
  %14 = tail call i64 @strlen(ptr noundef %0) #12
  %15 = tail call ptr @g_regex_replace(ptr noundef nonnull %4, ptr noundef %0, i64 noundef %14, i32 noundef 0, ptr noundef nonnull @.str.7, i32 noundef 0, ptr noundef null)
  %16 = tail call noalias ptr @g_ascii_strdown(ptr noundef %15, i64 noundef -1)
  %17 = tail call noalias ptr (ptr, ...) @g_strconcat(ptr noundef %16, ptr noundef nonnull @.str.8, ptr noundef %13, ptr noundef null)
  %18 = tail call ptr @prefs_find_preference(ptr noundef nonnull %8, ptr noundef %17)
  tail call void @g_free(ptr noundef %13)
  tail call void @g_free(ptr noundef %15)
  tail call void @g_free(ptr noundef %16)
  tail call void @g_free(ptr noundef %17)
  br label %.thread

19:                                               ; preds = %2
  br i1 %5, label %.thread, label %20

.thread:                                          ; preds = %9, %7, %19
  %.031 = phi ptr [ null, %19 ], [ null, %7 ], [ %18, %9 ]
  tail call void @g_regex_unref(ptr noundef nonnull %3)
  br label %20

20:                                               ; preds = %.thread, %19
  %.030 = phi ptr [ %.031, %.thread ], [ null, %19 ]
  br i1 %6, label %21, label %22

21:                                               ; preds = %20
  tail call void @g_regex_unref(ptr noundef nonnull %4)
  br label %22

22:                                               ; preds = %21, %20
  ret ptr %.030
}